; Function Attrs: mustprogress uwtable
define dso_local void @_ZN15Sample_SoloMesh19handleRenderOverlayEPdS0_Pi(ptr noundef nonnull align 8 dereferenceable(356) %0, ptr noundef %1, ptr noundef %2, ptr noundef %3) unnamed_addr #0 align 2 {
  %5 = getelementptr inbounds i8, ptr %0, i64 104
  %6 = load ptr, ptr %5, align 8
  %.not = icmp eq ptr %6, null
  br i1 %.not, label %11, label %7

7:                                                ; preds = %4
  %8 = load ptr, ptr %6, align 8
  %9 = getelementptr inbounds i8, ptr %8, i64 64
  %10 = load ptr, ptr %9, align 8
  tail call void %10(ptr noundef nonnull align 8 dereferenceable(8) %6, ptr noundef %1, ptr noundef %2, ptr noundef %3)
  br label %11

11:                                               ; preds = %7, %4
  tail call void @_ZN6Sample23renderOverlayToolStatesEPdS0_Pi(ptr noundef nonnull align 8 dereferenceable(200) %0, ptr noundef %1, ptr noundef %2, ptr noundef %3)
  ret void
}